target datalayout = "e-m:e-p270:32:32-p271:32:32-p272:64:64-i64:64-i128:128-f80:128-n8:16:32:64-S128"
target triple = "x86_64-unknown-linux-gnu"

%"class.url::CanonOutputT" = type { ptr, ptr, i32, i32 }

@_ZN3url20kSharedCharTypeTableE = external constant [256 x i8], align 16
@_ZN3url16kCharToHexLookupE = external constant [8 x i8], align 1

; Function Attrs: mustprogress nounwind uwtable
define linkonce_odr dso_local noundef zeroext i1 @_ZN3url12IsCharOfTypeEhNS_15SharedCharTypesE(i8 noundef zeroext %c, i32 noundef %type) #2 comdat {
entry:
  %c.addr = alloca i8, align 1
  %type.addr = alloca i32, align 4
  store i8 %c, ptr %c.addr, align 1
  store i32 %type, ptr %type.addr, align 4
  %0 = load i8, ptr %c.addr, align 1
  %idxprom = zext i8 %0 to i64
  %arrayidx = getelementptr inbounds [256 x i8], ptr @_ZN3url20kSharedCharTypeTableE, i64 0, i64 %idxprom
  %1 = load i8, ptr %arrayidx, align 1
  %conv = zext i8 %1 to i32
  %2 = load i32, ptr %type.addr, align 4
  %and = and i32 %conv, %2
  %tobool = icmp ne i32 %and, 0
  %lnot = xor i1 %tobool, true
  %lnot1 = xor i1 %lnot, true
  ret i1 %lnot1
}

; Function Attrs: mustprogress uwtable
define linkonce_odr dso_local noundef zeroext i1 @_ZN3url12CanonOutputTIcE4GrowEi(ptr noundef nonnull align 8 dereferenceable(24) %this, i32 noundef %min_additional) #0 comdat align 2 {
entry:
  %retval = alloca i1, align 1
  %this.addr = alloca ptr, align 8
  %min_additional.addr = alloca i32, align 4
  %new_len = alloca i32, align 4
  store ptr %this, ptr %this.addr, align 8
  store i32 %min_additional, ptr %min_additional.addr, align 4
  %this1 = load ptr, ptr %this.addr, align 8
  %buffer_len_ = getelementptr inbounds %"class.url::CanonOutputT", ptr %this1, i32 0, i32 2
  %0 = load i32, ptr %buffer_len_, align 8
  %cmp = icmp eq i32 %0, 0
  br i1 %cmp, label %cond.true, label %cond.false

cond.true:                                        ; preds = %entry
  br label %cond.end

cond.false:                                       ; preds = %entry
  %buffer_len_2 = getelementptr inbounds %"class.url::CanonOutputT", ptr %this1, i32 0, i32 2
  %1 = load i32, ptr %buffer_len_2, align 8
  br label %cond.end

cond.end:                                         ; preds = %cond.false, %cond.true
  %cond = phi i32 [ 16, %cond.true ], [ %1, %cond.false ]
  store i32 %cond, ptr %new_len, align 4
  br label %do.body

do.body:                                          ; preds = %do.cond, %cond.end
  %2 = load i32, ptr %new_len, align 4
  %cmp3 = icmp sge i32 %2, 1073741824
  br i1 %cmp3, label %if.then, label %if.end

if.then:                                          ; preds = %do.body
  store i1 false, ptr %retval, align 1
  br label %return

if.end:                                           ; preds = %do.body
  %3 = load i32, ptr %new_len, align 4
  %mul = mul nsw i32 %3, 2
  store i32 %mul, ptr %new_len, align 4
  br label %do.cond

do.cond:                                          ; preds = %if.end
  %4 = load i32, ptr %new_len, align 4
  %buffer_len_4 = getelementptr inbounds %"class.url::CanonOutputT", ptr %this1, i32 0, i32 2
  %5 = load i32, ptr %buffer_len_4, align 8
  %6 = load i32, ptr %min_additional.addr, align 4
  %add = add nsw i32 %5, %6
  %cmp5 = icmp slt i32 %4, %add
  br i1 %cmp5, label %do.body, label %do.end, !llvm.loop !10

do.end:                                           ; preds = %do.cond
  %7 = load i32, ptr %new_len, align 4
  %vtable = load ptr, ptr %this1, align 8
  %vfn = getelementptr inbounds ptr, ptr %vtable, i64 2
  %8 = load ptr, ptr %vfn, align 8
  call void %8(ptr noundef nonnull align 8 dereferenceable(24) %this1, i32 noundef %7)
  store i1 true, ptr %retval, align 1
  br label %return

return:                                           ; preds = %do.end, %if.then
  %9 = load i1, ptr %retval, align 1
  ret i1 %9
}

; Function Attrs: mustprogress nounwind uwtable
define linkonce_odr dso_local noundef zeroext i8 @_ZN3url14HexCharToValueEh(i8 noundef zeroext %c) #2 comdat {
entry:
  %c.addr = alloca i8, align 1
  store i8 %c, ptr %c.addr, align 1
  %0 = load i8, ptr %c.addr, align 1
  %conv = zext i8 %0 to i32
  %1 = load i8, ptr %c.addr, align 1
  %conv1 = zext i8 %1 to i32
  %div = sdiv i32 %conv1, 32
  %idxprom = sext i32 %div to i64
  %arrayidx = getelementptr inbounds [8 x i8], ptr @_ZN3url16kCharToHexLookupE, i64 0, i64 %idxprom
  %2 = load i8, ptr %arrayidx, align 1
  %conv2 = sext i8 %2 to i32
  %sub = sub nsw i32 %conv, %conv2
  %conv3 = trunc i32 %sub to i8
  ret i8 %conv3
}

; Function Attrs: mustprogress uwtable
define linkonce_odr dso_local noundef zeroext i1 @_ZN3url9IsHexCharEh(i8 noundef zeroext %c) #0 comdat {
entry:
  %c.addr = alloca i8, align 1
  store i8 %c, ptr %c.addr, align 1
  %0 = load i8, ptr %c.addr, align 1
  %call = call noundef zeroext i1 @_ZN3url12IsCharOfTypeEhNS_15SharedCharTypesE(i8 noundef zeroext %0, i32 noundef 8)
  ret i1 %call
}

; Function Attrs: mustprogress nounwind uwtable
define linkonce_odr dso_local noundef zeroext i1 @_ZN3url10Is8BitCharEc(i8 noundef signext %c) #2 comdat {
entry:
  %c.addr = alloca i8, align 1
  store i8 %c, ptr %c.addr, align 1
  ret i1 true
}

; Function Attrs: mustprogress uwtable
define linkonce_odr dso_local void @_ZN3url12CanonOutputTIcE9push_backEc(ptr noundef nonnull align 8 dereferenceable(24) %this, i8 noundef signext %ch) #0 comdat align 2 {
entry:
  %this.addr = alloca ptr, align 8
  %ch.addr = alloca i8, align 1
  store ptr %this, ptr %this.addr, align 8
  store i8 %ch, ptr %ch.addr, align 1
  %this1 = load ptr, ptr %this.addr, align 8
  %cur_len_ = getelementptr inbounds %"class.url::CanonOutputT", ptr %this1, i32 0, i32 3
  %0 = load i32, ptr %cur_len_, align 4
  %buffer_len_ = getelementptr inbounds %"class.url::CanonOutputT", ptr %this1, i32 0, i32 2
  %1 = load i32, ptr %buffer_len_, align 8
  %cmp = icmp slt i32 %0, %1
  br i1 %cmp, label %if.then, label %if.end

if.then:                                          ; preds = %entry
  %2 = load i8, ptr %ch.addr, align 1
  %buffer_ = getelementptr inbounds %"class.url::CanonOutputT", ptr %this1, i32 0, i32 1
  %3 = load ptr, ptr %buffer_, align 8
  %cur_len_2 = getelementptr inbounds %"class.url::CanonOutputT", ptr %this1, i32 0, i32 3
  %4 = load i32, ptr %cur_len_2, align 4
  %idxprom = sext i32 %4 to i64
  %arrayidx = getelementptr inbounds i8, ptr %3, i64 %idxprom
  store i8 %2, ptr %arrayidx, align 1
  %cur_len_3 = getelementptr inbounds %"class.url::CanonOutputT", ptr %this1, i32 0, i32 3
  %5 = load i32, ptr %cur_len_3, align 4
  %inc = add nsw i32 %5, 1
  store i32 %inc, ptr %cur_len_3, align 4
  br label %return

if.end:                                           ; preds = %entry
  %call = call noundef zeroext i1 @_ZN3url12CanonOutputTIcE4GrowEi(ptr noundef nonnull align 8 dereferenceable(24) %this1, i32 noundef 1)
  br i1 %call, label %if.end5, label %if.then4

if.then4:                                         ; preds = %if.end
  br label %return

if.end5:                                          ; preds = %if.end
  %6 = load i8, ptr %ch.addr, align 1
  %buffer_6 = getelementptr inbounds %"class.url::CanonOutputT", ptr %this1, i32 0, i32 1
  %7 = load ptr, ptr %buffer_6, align 8
  %cur_len_7 = getelementptr inbounds %"class.url::CanonOutputT", ptr %this1, i32 0, i32 3
  %8 = load i32, ptr %cur_len_7, align 4
  %idxprom8 = sext i32 %8 to i64
  %arrayidx9 = getelementptr inbounds i8, ptr %7, i64 %idxprom8
  store i8 %6, ptr %arrayidx9, align 1
  %cur_len_10 = getelementptr inbounds %"class.url::CanonOutputT", ptr %this1, i32 0, i32 3
  %9 = load i32, ptr %cur_len_10, align 4
  %inc11 = add nsw i32 %9, 1
  store i32 %inc11, ptr %cur_len_10, align 4
  br label %return

return:                                           ; preds = %if.end5, %if.then4, %if.then
  ret void
}

; Function Attrs: mustprogress uwtable
define linkonce_odr dso_local noundef zeroext i1 @_ZN3url13DecodeEscapedIcEEbPKT_PiiPh(ptr noundef %spec, ptr noundef %begin, i32 noundef %end, ptr noundef %unescaped_value) #0 comdat {
entry:
  %retval = alloca i1, align 1
  %spec.addr = alloca ptr, align 8
  %begin.addr = alloca ptr, align 8
  %end.addr = alloca i32, align 4
  %unescaped_value.addr = alloca ptr, align 8
  %first = alloca i8, align 1
  %second = alloca i8, align 1
  store ptr %spec, ptr %spec.addr, align 8
  store ptr %begin, ptr %begin.addr, align 8
  store i32 %end, ptr %end.addr, align 4
  store ptr %unescaped_value, ptr %unescaped_value.addr, align 8
  %0 = load ptr, ptr %begin.addr, align 8
  %1 = load i32, ptr %0, align 4
  %add = add nsw i32 %1, 3
  %2 = load i32, ptr %end.addr, align 4
  %cmp = icmp sgt i32 %add, %2
  br i1 %cmp, label %if.then, label %lor.lhs.false

lor.lhs.false:                                    ; preds = %entry
  %3 = load ptr, ptr %spec.addr, align 8
  %4 = load ptr, ptr %begin.addr, align 8
  %5 = load i32, ptr %4, align 4
  %add1 = add nsw i32 %5, 1
  %idxprom = sext i32 %add1 to i64
  %arrayidx = getelementptr inbounds i8, ptr %3, i64 %idxprom
  %6 = load i8, ptr %arrayidx, align 1
  %call = call noundef zeroext i1 @_ZN3url10Is8BitCharEc(i8 noundef signext %6)
  br i1 %call, label %lor.lhs.false2, label %if.then

lor.lhs.false2:                                   ; preds = %lor.lhs.false
  %7 = load ptr, ptr %spec.addr, align 8
  %8 = load ptr, ptr %begin.addr, align 8
  %9 = load i32, ptr %8, align 4
  %add3 = add nsw i32 %9, 2
  %idxprom4 = sext i32 %add3 to i64
  %arrayidx5 = getelementptr inbounds i8, ptr %7, i64 %idxprom4
  %10 = load i8, ptr %arrayidx5, align 1
  %call6 = call noundef zeroext i1 @_ZN3url10Is8BitCharEc(i8 noundef signext %10)
  br i1 %call6, label %if.end, label %if.then

if.then:                                          ; preds = %lor.lhs.false2, %lor.lhs.false, %entry
  store i1 false, ptr %retval, align 1
  br label %return

if.end:                                           ; preds = %lor.lhs.false2
  %11 = load ptr, ptr %spec.addr, align 8
  %12 = load ptr, ptr %begin.addr, align 8
  %13 = load i32, ptr %12, align 4
  %add7 = add nsw i32 %13, 1
  %idxprom8 = sext i32 %add7 to i64
  %arrayidx9 = getelementptr inbounds i8, ptr %11, i64 %idxprom8
  %14 = load i8, ptr %arrayidx9, align 1
  store i8 %14, ptr %first, align 1
  %15 = load ptr, ptr %spec.addr, align 8
  %16 = load ptr, ptr %begin.addr, align 8
  %17 = load i32, ptr %16, align 4
  %add10 = add nsw i32 %17, 2
  %idxprom11 = sext i32 %add10 to i64
  %arrayidx12 = getelementptr inbounds i8, ptr %15, i64 %idxprom11
  %18 = load i8, ptr %arrayidx12, align 1
  store i8 %18, ptr %second, align 1
  %19 = load i8, ptr %first, align 1
  %call13 = call noundef zeroext i1 @_ZN3url9IsHexCharEh(i8 noundef zeroext %19)
  br i1 %call13, label %lor.lhs.false14, label %if.then16

lor.lhs.false14:                                  ; preds = %if.end
  %20 = load i8, ptr %second, align 1
  %call15 = call noundef zeroext i1 @_ZN3url9IsHexCharEh(i8 noundef zeroext %20)
  br i1 %call15, label %if.end17, label %if.then16

if.then16:                                        ; preds = %lor.lhs.false14, %if.end
  store i1 false, ptr %retval, align 1
  br label %return

if.end17:                                         ; preds = %lor.lhs.false14
  %21 = load i8, ptr %first, align 1
  %call18 = call noundef zeroext i8 @_ZN3url14HexCharToValueEh(i8 noundef zeroext %21)
  %conv = zext i8 %call18 to i32
  %shl = shl i32 %conv, 4
  %22 = load i8, ptr %second, align 1
  %call19 = call noundef zeroext i8 @_ZN3url14HexCharToValueEh(i8 noundef zeroext %22)
  %conv20 = zext i8 %call19 to i32
  %add21 = add nsw i32 %shl, %conv20
  %conv22 = trunc i32 %add21 to i8
  %23 = load ptr, ptr %unescaped_value.addr, align 8
  store i8 %conv22, ptr %23, align 1
  %24 = load ptr, ptr %begin.addr, align 8
  %25 = load i32, ptr %24, align 4
  %add23 = add nsw i32 %25, 2
  store i32 %add23, ptr %24, align 4
  store i1 true, ptr %retval, align 1
  br label %return

return:                                           ; preds = %if.end17, %if.then16, %if.then
  %26 = load i1, ptr %retval, align 1
  ret i1 %26
}

; Function Attrs: mustprogress uwtable
define internal noundef zeroext i1 @_ZN3url12_GLOBAL__N_112DoSimpleHostIccEEbPKT_iPNS_12CanonOutputTIT0_EEPb(ptr noundef %host, i32 noundef %host_len, ptr noundef %output, ptr noundef %has_non_ascii) #0 {
entry:
  %host.addr = alloca ptr, align 8
  %host_len.addr = alloca i32, align 4
  %output.addr = alloca ptr, align 8
  %has_non_ascii.addr = alloca ptr, align 8
  %success = alloca i8, align 1
  %i = alloca i32, align 4
  %source = alloca i32, align 4
  %replacement = alloca i8, align 1
  store ptr %host, ptr %host.addr, align 8
  store i32 %host_len, ptr %host_len.addr, align 4
  store ptr %output, ptr %output.addr, align 8
  store ptr %has_non_ascii, ptr %has_non_ascii.addr, align 8
  %0 = load ptr, ptr %has_non_ascii.addr, align 8
  store i8 0, ptr %0, align 1
  store i8 1, ptr %success, align 1
  store i32 0, ptr %i, align 4
  br label %for.cond

for.cond:                                         ; preds = %for.inc, %entry
  %1 = load i32, ptr %i, align 4
  %2 = load i32, ptr %host_len.addr, align 4
  %cmp = icmp slt i32 %1, %2
  br i1 %cmp, label %for.body, label %for.end

for.body:                                         ; preds = %for.cond
  %3 = load ptr, ptr %host.addr, align 8
  %4 = load i32, ptr %i, align 4
  %idxprom = sext i32 %4 to i64
  %arrayidx = getelementptr inbounds i8, ptr %3, i64 %idxprom
  %5 = load i8, ptr %arrayidx, align 1
  %conv = sext i8 %5 to i32
  store i32 %conv, ptr %source, align 4
  %6 = load i32, ptr %source, align 4
  %cmp1 = icmp eq i32 %6, 37
  br i1 %cmp1, label %if.then, label %if.end3

if.then:                                          ; preds = %for.body
  %7 = load ptr, ptr %host.addr, align 8
  %8 = load i32, ptr %host_len.addr, align 4
  %call = call noundef zeroext i1 @_ZN3url13DecodeEscapedIcEEbPKT_PiiPh(ptr noundef %7, ptr noundef %i, i32 noundef %8, ptr noundef %source)
  br i1 %call, label %if.end, label %if.then2

if.then2:                                         ; preds = %if.then
  %9 = load ptr, ptr %output.addr, align 8
  call void @_ZN3url17AppendEscapedCharIccEEvT_PNS_12CanonOutputTIT0_EE(i8 noundef signext 37, ptr noundef %9)
  store i8 0, ptr %success, align 1
  br label %for.inc

if.end:                                           ; preds = %if.then
  br label %if.end3

if.end3:                                          ; preds = %if.end, %for.body
  %10 = load i32, ptr %source, align 4
  %cmp4 = icmp ult i32 %10, 128
  br i1 %cmp4, label %if.then5, label %if.else15

if.then5:                                         ; preds = %if.end3
  %11 = load i32, ptr %source, align 4
  %idxprom6 = zext i32 %11 to i64
  %arrayidx7 = getelementptr inbounds [128 x i8], ptr @_ZN3url12_GLOBAL__N_115kHostCharLookupE, i64 0, i64 %idxprom6
  %12 = load i8, ptr %arrayidx7, align 1
  store i8 %12, ptr %replacement, align 1
  %13 = load i8, ptr %replacement, align 1
  %tobool = icmp ne i8 %13, 0
  br i1 %tobool, label %if.else, label %if.then8

if.then8:                                         ; preds = %if.then5
  %14 = load i32, ptr %source, align 4
  %15 = load ptr, ptr %output.addr, align 8
  call void @_ZN3url17AppendEscapedCharIjcEEvT_PNS_12CanonOutputTIT0_EE(i32 noundef %14, ptr noundef %15)
  store i8 0, ptr %success, align 1
  br label %if.end14

if.else:                                          ; preds = %if.then5
  %16 = load i8, ptr %replacement, align 1
  %conv9 = zext i8 %16 to i32
  %cmp10 = icmp eq i32 %conv9, 255
  br i1 %cmp10, label %if.then11, label %if.else12

if.then11:                                        ; preds = %if.else
  %17 = load i32, ptr %source, align 4
  %18 = load ptr, ptr %output.addr, align 8
  call void @_ZN3url17AppendEscapedCharIjcEEvT_PNS_12CanonOutputTIT0_EE(i32 noundef %17, ptr noundef %18)
  br label %if.end13

if.else12:                                        ; preds = %if.else
  %19 = load ptr, ptr %output.addr, align 8
  %20 = load i8, ptr %replacement, align 1
  call void @_ZN3url12CanonOutputTIcE9push_backEc(ptr noundef nonnull align 8 dereferenceable(24) %19, i8 noundef signext %20)
  br label %if.end13

if.end13:                                         ; preds = %if.else12, %if.then11
  br label %if.end14

if.end14:                                         ; preds = %if.end13, %if.then8
  br label %if.end17

if.else15:                                        ; preds = %if.end3
  %21 = load ptr, ptr %output.addr, align 8
  %22 = load i32, ptr %source, align 4
  %conv16 = trunc i32 %22 to i8
  call void @_ZN3url12CanonOutputTIcE9push_backEc(ptr noundef nonnull align 8 dereferenceable(24) %21, i8 noundef signext %conv16)
  %23 = load ptr, ptr %has_non_ascii.addr, align 8
  store i8 1, ptr %23, align 1
  br label %if.end17

if.end17:                                         ; preds = %if.else15, %if.end14
  br label %for.inc

for.inc:                                          ; preds = %if.end17, %if.then2
  %24 = load i32, ptr %i, align 4
  %inc = add nsw i32 %24, 1
  store i32 %inc, ptr %i, align 4
  br label %for.cond, !llvm.loop !7

for.end:                                          ; preds = %for.cond
  %25 = load i8, ptr %success, align 1
  %tobool18 = trunc i8 %25 to i1
  ret i1 %tobool18
}