; Function Attrs: mustprogress uwtable
define internal fastcc noundef zeroext i1 @_ZN3url12_GLOBAL__N_112DoSimpleHostIccEEbPKT_iPNS_12CanonOutputTIT0_EEPb(ptr nocapture noundef readonly %host, i32 noundef %host_len, ptr noundef %output, ptr nocapture noundef writeonly %has_non_ascii) unnamed_addr #0 {
entry:
  store i8 0, ptr %has_non_ascii, align 1
  %cmp46 = icmp sgt i32 %host_len, 0
  br i1 %cmp46, label %for.body.lr.ph, label %for.end

for.body.lr.ph:                                   ; preds = %entry
  %cur_len_.i14 = getelementptr inbounds i8, ptr %output, i64 20
  %buffer_len_.i15 = getelementptr inbounds i8, ptr %output, i64 16
  %.sink.in.i31 = getelementptr inbounds i8, ptr %output, i64 8
  br label %for.body

for.body:                                         ; preds = %for.body.lr.ph, %for.inc
  %success.048 = phi i8 [ 1, %for.body.lr.ph ], [ %success.1, %for.inc ]
  %storemerge47 = phi i32 [ 0, %for.body.lr.ph ], [ %inc, %for.inc ]
  %idxprom = sext i32 %storemerge47 to i64
  %arrayidx = getelementptr inbounds i8, ptr %host, i64 %idxprom
  %0 = load i8, ptr %arrayidx, align 1
  %cmp1 = icmp eq i8 %0, 37
  br i1 %cmp1, label %if.then, label %if.end3

if.then:                                          ; preds = %for.body
  %add.i = add nsw i32 %storemerge47, 3
  %cmp.i = icmp sgt i32 %add.i, %host_len
  br i1 %cmp.i, label %if.then2, label %if.end.i

if.end.i:                                         ; preds = %if.then
  %arrayidx.i = getelementptr i8, ptr %arrayidx, i64 1
  %arrayidx5.i = getelementptr i8, ptr %arrayidx, i64 2
  %1 = load i8, ptr %arrayidx.i, align 1
  %2 = load i8, ptr %arrayidx5.i, align 1
  %idxprom.i.i.i = zext i8 %1 to i64
  %arrayidx.i.i.i = getelementptr inbounds [256 x i8], ptr @_ZN3url20kSharedCharTypeTableE, i64 0, i64 %idxprom.i.i.i
  %3 = load i8, ptr %arrayidx.i.i.i, align 1
  %4 = and i8 %3, 8
  %tobool.i.i.not.i = icmp eq i8 %4, 0
  br i1 %tobool.i.i.not.i, label %if.then2, label %lor.lhs.false14.i

lor.lhs.false14.i:                                ; preds = %if.end.i
  %idxprom.i.i11.i = zext i8 %2 to i64
  %arrayidx.i.i12.i = getelementptr inbounds [256 x i8], ptr @_ZN3url20kSharedCharTypeTableE, i64 0, i64 %idxprom.i.i11.i
  %5 = load i8, ptr %arrayidx.i.i12.i, align 1
  %6 = and i8 %5, 8
  %tobool.i.i13.not.i = icmp eq i8 %6, 0
  br i1 %tobool.i.i13.not.i, label %if.then2, label %_ZN3url13DecodeEscapedIcEEbPKT_PiiPh.exit

_ZN3url13DecodeEscapedIcEEbPKT_PiiPh.exit:        ; preds = %lor.lhs.false14.i
  %7 = lshr i8 %1, 5
  %idxprom.i.i = zext nneg i8 %7 to i64
  %arrayidx.i.i = getelementptr inbounds [8 x i8], ptr @_ZN3url16kCharToHexLookupE, i64 0, i64 %idxprom.i.i
  %8 = load i8, ptr %arrayidx.i.i, align 1
  %sub.i.i = sub i8 %1, %8
  %shl.i = shl i8 %sub.i.i, 4
  %9 = lshr i8 %2, 5
  %idxprom.i14.i = zext nneg i8 %9 to i64
  %arrayidx.i15.i = getelementptr inbounds [8 x i8], ptr @_ZN3url16kCharToHexLookupE, i64 0, i64 %idxprom.i14.i
  %10 = load i8, ptr %arrayidx.i15.i, align 1
  %sub.i16.i = sub i8 %2, %10
  %add21.i = add i8 %sub.i16.i, %shl.i
  %add23.i = add nsw i32 %storemerge47, 2
  br label %if.end3

if.then2:                                         ; preds = %if.then, %lor.lhs.false14.i, %if.end.i
  tail call void @_ZN3url17AppendEscapedCharIccEEvT_PNS_12CanonOutputTIT0_EE(i8 noundef signext 37, ptr noundef %output)
  br label %for.inc

if.end3:                                          ; preds = %_ZN3url13DecodeEscapedIcEEbPKT_PiiPh.exit, %for.body
  %i.1 = phi i32 [ %add23.i, %_ZN3url13DecodeEscapedIcEEbPKT_PiiPh.exit ], [ %storemerge47, %for.body ]
  %source.sroa.0.1 = phi i8 [ %add21.i, %_ZN3url13DecodeEscapedIcEEbPKT_PiiPh.exit ], [ %0, %for.body ]
  %isneg = icmp slt i8 %0, 0
  %source.sroa.3.0.insert.ext = select i1 %isneg, i32 -256, i32 0
  %source.sroa.0.0.insert.ext = zext i8 %source.sroa.0.1 to i32
  %source.sroa.0.0.insert.insert = or disjoint i32 %source.sroa.3.0.insert.ext, %source.sroa.0.0.insert.ext
  %cmp4 = icmp ult i32 %source.sroa.0.0.insert.insert, 128
  br i1 %cmp4, label %if.then5, label %if.else15

if.then5:                                         ; preds = %if.end3
  %idxprom6 = zext nneg i32 %source.sroa.0.0.insert.insert to i64
  %arrayidx7 = getelementptr inbounds [128 x i8], ptr @_ZN3url12_GLOBAL__N_115kHostCharLookupE, i64 0, i64 %idxprom6
  %11 = load i8, ptr %arrayidx7, align 1
  switch i8 %11, label %if.else12 [
    i8 0, label %if.then8
    i8 -1, label %if.then11
  ]

if.then8:                                         ; preds = %if.then5
  tail call void @_ZN3url17AppendEscapedCharIjcEEvT_PNS_12CanonOutputTIT0_EE(i32 noundef %source.sroa.0.0.insert.insert, ptr noundef %output)
  br label %for.inc

if.then11:                                        ; preds = %if.then5
  tail call void @_ZN3url17AppendEscapedCharIjcEEvT_PNS_12CanonOutputTIT0_EE(i32 noundef %source.sroa.0.0.insert.insert, ptr noundef %output)
  br label %for.inc

if.else12:                                        ; preds = %if.then5
  %12 = load i32, ptr %cur_len_.i14, align 4
  %13 = load i32, ptr %buffer_len_.i15, align 8
  %cmp.i12 = icmp slt i32 %12, %13
  br i1 %cmp.i12, label %return.sink.split.i, label %if.end.i13

if.end.i13:                                       ; preds = %if.else12
  %cmp.i.i = icmp eq i32 %13, 0
  %spec.select = select i1 %cmp.i.i, i32 16, i32 %13
  br label %do.body.i.i

do.body.i.i:                                      ; preds = %if.end.i13, %if.end.i.i
  %new_len.0.i.i = phi i32 [ %mul.i.i, %if.end.i.i ], [ %spec.select, %if.end.i13 ]
  %cmp3.i.i = icmp slt i32 %new_len.0.i.i, 1073741824
  br i1 %cmp3.i.i, label %if.end.i.i, label %for.inc

if.end.i.i:                                       ; preds = %do.body.i.i
  %mul.i.i = shl nsw i32 %new_len.0.i.i, 1
  %cmp5.i.not.i = icmp sgt i32 %mul.i.i, %13
  br i1 %cmp5.i.not.i, label %if.end5.i, label %do.body.i.i, !llvm.loop !7

if.end5.i:                                        ; preds = %if.end.i.i
  %vtable.i.i = load ptr, ptr %output, align 8
  %vfn.i.i = getelementptr inbounds i8, ptr %vtable.i.i, i64 16
  %14 = load ptr, ptr %vfn.i.i, align 8
  tail call void %14(ptr noundef nonnull align 8 dereferenceable(24) %output, i32 noundef %mul.i.i)
  %15 = load i32, ptr %cur_len_.i14, align 4
  br label %return.sink.split.i

return.sink.split.i:                              ; preds = %if.else12, %if.end5.i
  %.sink2.i = phi i32 [ %15, %if.end5.i ], [ %12, %if.else12 ]
  %.sink.i = load ptr, ptr %.sink.in.i31, align 8
  %idxprom8.i = sext i32 %.sink2.i to i64
  %arrayidx9.i = getelementptr inbounds i8, ptr %.sink.i, i64 %idxprom8.i
  store i8 %11, ptr %arrayidx9.i, align 1
  %16 = load i32, ptr %cur_len_.i14, align 4
  %inc11.i = add nsw i32 %16, 1
  store i32 %inc11.i, ptr %cur_len_.i14, align 4
  br label %for.inc

if.else15:                                        ; preds = %if.end3
  %17 = load i32, ptr %cur_len_.i14, align 4
  %18 = load i32, ptr %buffer_len_.i15, align 8
  %cmp.i16 = icmp slt i32 %17, %18
  br i1 %cmp.i16, label %return.sink.split.i29, label %if.end.i17

if.end.i17:                                       ; preds = %if.else15
  %cmp.i.i18 = icmp eq i32 %18, 0
  %spec.select50 = select i1 %cmp.i.i18, i32 16, i32 %18
  br label %do.body.i.i20

do.body.i.i20:                                    ; preds = %if.end.i17, %if.end.i.i23
  %new_len.0.i.i21 = phi i32 [ %mul.i.i24, %if.end.i.i23 ], [ %spec.select50, %if.end.i17 ]
  %cmp3.i.i22 = icmp slt i32 %new_len.0.i.i21, 1073741824
  br i1 %cmp3.i.i22, label %if.end.i.i23, label %_ZN3url12CanonOutputTIcE9push_backEc.exit37

if.end.i.i23:                                     ; preds = %do.body.i.i20
  %mul.i.i24 = shl nsw i32 %new_len.0.i.i21, 1
  %cmp5.i.not.i25 = icmp sgt i32 %mul.i.i24, %18
  br i1 %cmp5.i.not.i25, label %if.end5.i26, label %do.body.i.i20, !llvm.loop !7

if.end5.i26:                                      ; preds = %if.end.i.i23
  %vtable.i.i27 = load ptr, ptr %output, align 8
  %vfn.i.i28 = getelementptr inbounds i8, ptr %vtable.i.i27, i64 16
  %19 = load ptr, ptr %vfn.i.i28, align 8
  tail call void %19(ptr noundef nonnull align 8 dereferenceable(24) %output, i32 noundef %mul.i.i24)
  %20 = load i32, ptr %cur_len_.i14, align 4
  br label %return.sink.split.i29

return.sink.split.i29:                            ; preds = %if.else15, %if.end5.i26
  %.sink2.i30 = phi i32 [ %20, %if.end5.i26 ], [ %17, %if.else15 ]
  %.sink.i32 = load ptr, ptr %.sink.in.i31, align 8
  %idxprom8.i33 = sext i32 %.sink2.i30 to i64
  %arrayidx9.i34 = getelementptr inbounds i8, ptr %.sink.i32, i64 %idxprom8.i33
  store i8 %source.sroa.0.1, ptr %arrayidx9.i34, align 1
  %21 = load i32, ptr %cur_len_.i14, align 4
  %inc11.i35 = add nsw i32 %21, 1
  store i32 %inc11.i35, ptr %cur_len_.i14, align 4
  br label %_ZN3url12CanonOutputTIcE9push_backEc.exit37

_ZN3url12CanonOutputTIcE9push_backEc.exit37:      ; preds = %do.body.i.i20, %return.sink.split.i29
  store i8 1, ptr %has_non_ascii, align 1
  br label %for.inc

for.inc:                                          ; preds = %do.body.i.i, %return.sink.split.i, %_ZN3url12CanonOutputTIcE9push_backEc.exit37, %if.then11, %if.then8, %if.then2
  %i.2 = phi i32 [ %i.1, %if.then11 ], [ %i.1, %if.then8 ], [ %i.1, %_ZN3url12CanonOutputTIcE9push_backEc.exit37 ], [ %storemerge47, %if.then2 ], [ %i.1, %return.sink.split.i ], [ %i.1, %do.body.i.i ]
  %success.1 = phi i8 [ %success.048, %if.then11 ], [ 0, %if.then8 ], [ %success.048, %_ZN3url12CanonOutputTIcE9push_backEc.exit37 ], [ 0, %if.then2 ], [ %success.048, %return.sink.split.i ], [ %success.048, %do.body.i.i ]
  %inc = add nsw i32 %i.2, 1
  %cmp = icmp slt i32 %inc, %host_len
  br i1 %cmp, label %for.body, label %for.end.loopexit, !llvm.loop !11

for.end.loopexit:                                 ; preds = %for.inc
  %22 = and i8 %success.1, 1
  %23 = icmp ne i8 %22, 0
  br label %for.end

for.end:                                          ; preds = %for.end.loopexit, %entry
  %success.0.lcssa = phi i1 [ true, %entry ], [ %23, %for.end.loopexit ]
  ret i1 %success.0.lcssa
}